target datalayout = "e-m:e-p270:32:32-p271:32:32-p272:64:64-i64:64-i128:128-f80:128-n8:16:32:64-S128"
target triple = "x86_64-pc-linux-gnu"

%struct.PJconsts = type { ptr, ptr, ptr, ptr, ptr, ptr, ptr, ptr, ptr, ptr, ptr, ptr, i32, ptr, ptr, ptr, ptr, ptr, ptr, ptr, ptr, double, double, double, double, double, double, double, double, double, double, double, double, double, double, double, double, double, double, double, double, double, double, i32, i32, i32, i32, i32, i32, i32, i32, i32, i32, i32, ptr, ptr, ptr, ptr, ptr, ptr, double, double, double, double, double, double, double, double, double, double, double, i32, [7 x double], i32, ptr, ptr, double, double, i32, [4 x i8], %"class.std::shared_ptr", i8, double, i8, %"class.std::__cxx11::basic_string", %"class.std::__cxx11::basic_string", %"class.std::__cxx11::basic_string", i8, %"class.std::vector", i32, %"class.std::vector.3", i32, i8, i8, i8, ptr }
%"class.std::shared_ptr" = type { %"class.std::__shared_ptr" }
%"class.std::__shared_ptr" = type { ptr, %"class.std::__shared_count" }
%"class.std::__shared_count" = type { ptr }
%"class.std::__cxx11::basic_string" = type { %"struct.std::__cxx11::basic_string<char>::_Alloc_hider", i64, %union.anon }
%"struct.std::__cxx11::basic_string<char>::_Alloc_hider" = type { ptr }
%union.anon = type { i64, [8 x i8] }
%"class.std::vector" = type { %"struct.std::_Vector_base" }
%"struct.std::_Vector_base" = type { %"struct.std::_Vector_base<osgeo::proj::operation::GridDescription, std::allocator<osgeo::proj::operation::GridDescription>>::_Vector_impl" }
%"struct.std::_Vector_base<osgeo::proj::operation::GridDescription, std::allocator<osgeo::proj::operation::GridDescription>>::_Vector_impl" = type { %"struct.std::_Vector_base<osgeo::proj::operation::GridDescription, std::allocator<osgeo::proj::operation::GridDescription>>::_Vector_impl_data" }
%"struct.std::_Vector_base<osgeo::proj::operation::GridDescription, std::allocator<osgeo::proj::operation::GridDescription>>::_Vector_impl_data" = type { ptr, ptr, ptr }
%"class.std::vector.3" = type { %"struct.std::_Vector_base.4" }
%"struct.std::_Vector_base.4" = type { %"struct.std::_Vector_base<PJCoordOperation, std::allocator<PJCoordOperation>>::_Vector_impl" }
%"struct.std::_Vector_base<PJCoordOperation, std::allocator<PJCoordOperation>>::_Vector_impl" = type { %"struct.std::_Vector_base<PJCoordOperation, std::allocator<PJCoordOperation>>::_Vector_impl_data" }
%"struct.std::_Vector_base<PJCoordOperation, std::allocator<PJCoordOperation>>::_Vector_impl_data" = type { ptr, ptr, ptr }
%"struct.(anonymous namespace)::pj_aeqd_data" = type { double, double, ptr, double, double, double, double, double, i32, %struct.geod_geodesic }
%struct.geod_geodesic = type { double, double, double, double, double, double, double, double, double, [6 x double], [15 x double], [21 x double] }
%struct.PJ_LP = type { double, double }
%struct.PJ_XY = type { double, double }

; Function Attrs: mustprogress uwtable
define internal { double, double } @_ZL10e_guam_fwd5PJ_LPP8PJconsts(double %0, double %1, ptr noundef %2) #0 {
  %4 = alloca %struct.PJ_XY, align 8
  %5 = alloca %struct.PJ_LP, align 8
  %6 = alloca ptr, align 8
  %7 = alloca ptr, align 8
  %8 = alloca double, align 8
  %9 = alloca double, align 8
  %10 = alloca double, align 8
  %11 = getelementptr inbounds nuw { double, double }, ptr %5, i32 0, i32 0
  store double %0, ptr %11, align 8
  %12 = getelementptr inbounds nuw { double, double }, ptr %5, i32 0, i32 1
  store double %1, ptr %12, align 8
  store ptr %2, ptr %6, align 8, !tbaa !3
  call void @llvm.memset.p0.i64(ptr align 8 %4, i8 0, i64 16, i1 false)
  call void @llvm.lifetime.start.p0(i64 8, ptr %7) #8
  %13 = load ptr, ptr %6, align 8, !tbaa !3
  %14 = getelementptr inbounds nuw %struct.PJconsts, ptr %13, i32 0, i32 11
  %15 = load ptr, ptr %14, align 8, !tbaa !43
  store ptr %15, ptr %7, align 8, !tbaa !41
  call void @llvm.lifetime.start.p0(i64 8, ptr %8) #8
  call void @llvm.lifetime.start.p0(i64 8, ptr %9) #8
  call void @llvm.lifetime.start.p0(i64 8, ptr %10) #8
  %16 = getelementptr inbounds nuw %struct.PJ_LP, ptr %5, i32 0, i32 1
  %17 = load double, ptr %16, align 8, !tbaa !74
  %18 = call double @cos(double noundef %17) #8, !tbaa !54
  store double %18, ptr %8, align 8, !tbaa !73
  %19 = getelementptr inbounds nuw %struct.PJ_LP, ptr %5, i32 0, i32 1
  %20 = load double, ptr %19, align 8, !tbaa !74
  %21 = call double @sin(double noundef %20) #8, !tbaa !54
  store double %21, ptr %9, align 8, !tbaa !73
  %22 = load ptr, ptr %6, align 8, !tbaa !3
  %23 = getelementptr inbounds nuw %struct.PJconsts, ptr %22, i32 0, i32 27
  %24 = load double, ptr %23, align 8, !tbaa !55
  %25 = load double, ptr %9, align 8, !tbaa !73
  %26 = fmul double %24, %25
  %27 = load double, ptr %9, align 8, !tbaa !73
  %28 = fneg double %26
  %29 = call double @llvm.fmuladd.f64(double %28, double %27, double 1.000000e+00)
  %30 = call double @sqrt(double noundef %29) #8, !tbaa !54
  %31 = fdiv double 1.000000e+00, %30
  store double %31, ptr %10, align 8, !tbaa !73
  %32 = getelementptr inbounds nuw %struct.PJ_LP, ptr %5, i32 0, i32 0
  %33 = load double, ptr %32, align 8, !tbaa !76
  %34 = load double, ptr %8, align 8, !tbaa !73
  %35 = fmul double %33, %34
  %36 = load double, ptr %10, align 8, !tbaa !73
  %37 = fmul double %35, %36
  %38 = getelementptr inbounds nuw %struct.PJ_XY, ptr %4, i32 0, i32 0
  store double %37, ptr %38, align 8, !tbaa !70
  %39 = getelementptr inbounds nuw %struct.PJ_LP, ptr %5, i32 0, i32 1
  %40 = load double, ptr %39, align 8, !tbaa !74
  %41 = load double, ptr %9, align 8, !tbaa !73
  %42 = load double, ptr %8, align 8, !tbaa !73
  %43 = load ptr, ptr %7, align 8, !tbaa !41
  %44 = getelementptr inbounds nuw %"struct.(anonymous namespace)::pj_aeqd_data", ptr %43, i32 0, i32 2
  %45 = load ptr, ptr %44, align 8, !tbaa !59
  %46 = call noundef double @_Z7pj_mlfndddPKd(double noundef %40, double noundef %41, double noundef %42, ptr noundef %45)
  %47 = load ptr, ptr %7, align 8, !tbaa !41
  %48 = getelementptr inbounds nuw %"struct.(anonymous namespace)::pj_aeqd_data", ptr %47, i32 0, i32 3
  %49 = load double, ptr %48, align 8, !tbaa !63
  %50 = fsub double %46, %49
  %51 = getelementptr inbounds nuw %struct.PJ_LP, ptr %5, i32 0, i32 0
  %52 = load double, ptr %51, align 8, !tbaa !76
  %53 = fmul double 5.000000e-01, %52
  %54 = getelementptr inbounds nuw %struct.PJ_LP, ptr %5, i32 0, i32 0
  %55 = load double, ptr %54, align 8, !tbaa !76
  %56 = fmul double %53, %55
  %57 = load double, ptr %8, align 8, !tbaa !73
  %58 = fmul double %56, %57
  %59 = load double, ptr %9, align 8, !tbaa !73
  %60 = fmul double %58, %59
  %61 = load double, ptr %10, align 8, !tbaa !73
  %62 = call double @llvm.fmuladd.f64(double %60, double %61, double %50)
  %63 = getelementptr inbounds nuw %struct.PJ_XY, ptr %4, i32 0, i32 1
  store double %62, ptr %63, align 8, !tbaa !72
  call void @llvm.lifetime.end.p0(i64 8, ptr %10) #8
  call void @llvm.lifetime.end.p0(i64 8, ptr %9) #8
  call void @llvm.lifetime.end.p0(i64 8, ptr %8) #8
  call void @llvm.lifetime.end.p0(i64 8, ptr %7) #8
  %64 = load { double, double }, ptr %4, align 8
  ret { double, double } %64
}