; Function Attrs: mustprogress uwtable
define internal { double, double } @_ZL10e_guam_fwd5PJ_LPP8PJconsts(double %0, double %1, ptr noundef readonly captures(none) %2) #0 {
  %4 = getelementptr inbounds nuw i8, ptr %2, i64 88
  %5 = load ptr, ptr %4, align 8, !tbaa !40
  %6 = tail call double @cos(double noundef %1) #8, !tbaa !50
  %7 = tail call double @sin(double noundef %1) #8, !tbaa !50
  %8 = getelementptr inbounds nuw i8, ptr %2, i64 216
  %9 = load double, ptr %8, align 8, !tbaa !52
  %10 = fneg double %7
  %11 = fmul double %9, %10
  %12 = tail call double @llvm.fmuladd.f64(double %11, double %7, double 1.000000e+00)
  %13 = tail call double @sqrt(double noundef %12) #8, !tbaa !50
  %14 = fdiv double 1.000000e+00, %13
  %15 = fmul double %0, %6
  %16 = fmul double %15, %14
  %17 = getelementptr inbounds nuw i8, ptr %5, i64 16
  %18 = load ptr, ptr %17, align 8, !tbaa !56
  %19 = tail call noundef double @_Z7pj_mlfndddPKd(double noundef %1, double noundef %7, double noundef %6, ptr noundef %18)
  %20 = getelementptr inbounds nuw i8, ptr %5, i64 24
  %21 = load double, ptr %20, align 8, !tbaa !59
  %22 = fsub double %19, %21
  %23 = fmul double %0, 5.000000e-01
  %24 = fmul double %0, %23
  %25 = fmul double %24, %6
  %26 = fmul double %25, %7
  %27 = tail call double @llvm.fmuladd.f64(double %26, double %14, double %22)
  %.fca.0.insert = insertvalue { double, double } poison, double %16, 0
  %.fca.1.insert = insertvalue { double, double } %.fca.0.insert, double %27, 1
  ret { double, double } %.fca.1.insert
}